target datalayout = "e-m:e-p270:32:32-p271:32:32-p272:64:64-i64:64-i128:128-f80:128-n8:16:32:64-S128"
target triple = "x86_64-pc-linux-gnu"

; Function Attrs: mustprogress nounwind uwtable
define hidden noundef double @_Z7pj_msfnddd(double noundef %0, double noundef %1, double noundef %2) #0 {
  %4 = alloca double, align 8
  %5 = alloca double, align 8
  %6 = alloca double, align 8
  store double %0, ptr %4, align 8, !tbaa !3
  store double %1, ptr %5, align 8, !tbaa !3
  store double %2, ptr %6, align 8, !tbaa !3
  %7 = load double, ptr %5, align 8, !tbaa !3
  %8 = load double, ptr %6, align 8, !tbaa !3
  %9 = load double, ptr %4, align 8, !tbaa !3
  %10 = fmul double %8, %9
  %11 = load double, ptr %4, align 8, !tbaa !3
  %12 = fneg double %10
  %13 = call double @llvm.fmuladd.f64(double %12, double %11, double 1.000000e+00)
  %14 = call double @sqrt(double noundef %13) #3, !tbaa !7
  %15 = fdiv double %7, %14
  ret double %15
}

; Function Attrs: nounwind
declare double @sqrt(double noundef) #1

; Function Attrs: nocallback nofree nosync nounwind speculatable willreturn memory(none)
declare double @llvm.fmuladd.f64(double, double, double) #2


!llvm.module.flags = !{!0, !1, !2}

!0 = !{i32 1, !"wchar_size", i32 4}
!1 = !{i32 8, !"PIC Level", i32 2}
!2 = !{i32 7, !"uwtable", i32 2}
!3 = !{!4, !4, i64 0}
!4 = !{!"double", !5, i64 0}
!5 = !{!"omnipotent char", !6, i64 0}
!6 = !{!"Simple C++ TBAA"}
!7 = !{!8, !8, i64 0}
!8 = !{!"int", !5, i64 0}
