; ModuleID = 'bench/proj/original/msfn.ll'
source_filename = "bench/proj/original/msfn.ll"
target datalayout = "e-m:e-p270:32:32-p271:32:32-p272:64:64-i64:64-i128:128-f80:128-n8:16:32:64-S128"
target triple = "x86_64-pc-linux-gnu"

; Function Attrs: mustprogress nofree nounwind willreturn memory(write) uwtable
define hidden noundef double @_Z7pj_msfnddd(double noundef %0, double noundef %1, double noundef %2) local_unnamed_addr #0 {
  %4 = fneg double %0
  %5 = fmul double %2, %4
  %6 = tail call double @llvm.fmuladd.f64(double %5, double %0, double 1.000000e+00)
  %7 = tail call double @sqrt(double noundef %6) #3, !tbaa !3
  %8 = fdiv double %1, %7
  ret double %8
}

; Function Attrs: mustprogress nofree nounwind willreturn memory(write)
declare double @sqrt(double noundef) local_unnamed_addr #1

; Function Attrs: mustprogress nocallback nofree nosync nounwind speculatable willreturn memory(none)
declare double @llvm.fmuladd.f64(double, double, double) #2


!llvm.module.flags = !{!0, !1, !2}

!0 = !{i32 1, !"wchar_size", i32 4}
!1 = !{i32 8, !"PIC Level", i32 2}
!2 = !{i32 7, !"uwtable", i32 2}
!3 = !{!4, !4, i64 0}
!4 = !{!"int", !5, i64 0}
!5 = !{!"omnipotent char", !6, i64 0}
!6 = !{!"Simple C++ TBAA"}
